target datalayout = "e-m:e-p270:32:32-p271:32:32-p272:64:64-i64:64-i128:128-f80:128-n8:16:32:64-S128"
target triple = "x86_64-pc-linux-gnu"

@hf_hdfsdata_clientlen = internal global i32 0, align 4
@hf_hdfsdata_clientid = internal global i32 0, align 4

; Function Attrs: nounwind null_pointer_is_valid sspstrong uwtable
define internal i32 @decode_vint_size(i8 noundef signext %0) #3 {
  %2 = alloca i32, align 4
  %3 = alloca i8, align 1
  store i8 %0, ptr %3, align 1
  %4 = load i8, ptr %3, align 1
  %5 = sext i8 %4 to i32
  %6 = icmp sge i32 %5, -112
  br i1 %6, label %7, label %8

7:                                                ; preds = %1
  store i32 1, ptr %2, align 4
  br label %21

8:                                                ; preds = %1
  %9 = load i8, ptr %3, align 1
  %10 = sext i8 %9 to i32
  %11 = icmp slt i32 %10, -120
  br i1 %11, label %12, label %16

12:                                               ; preds = %8
  %13 = load i8, ptr %3, align 1
  %14 = sext i8 %13 to i32
  %15 = sub i32 -119, %14
  store i32 %15, ptr %2, align 4
  br label %21

16:                                               ; preds = %8
  br label %17

17:                                               ; preds = %16
  %18 = load i8, ptr %3, align 1
  %19 = sext i8 %18 to i32
  %20 = sub i32 -111, %19
  store i32 %20, ptr %2, align 4
  br label %21

21:                                               ; preds = %17, %12, %7
  %22 = load i32, ptr %2, align 4
  ret i32 %22
}

; Function Attrs: null_pointer_is_valid sspstrong uwtable
define internal i32 @dissect_variable_length_long(ptr noundef %0, ptr noundef %1, ptr noundef %2) #0 {
  %4 = alloca i32, align 4
  %5 = alloca ptr, align 8
  %6 = alloca ptr, align 8
  %7 = alloca ptr, align 8
  %8 = alloca i32, align 4
  %9 = alloca i32, align 4
  %10 = alloca i32, align 4
  %11 = alloca i8, align 1
  %12 = alloca i32, align 4
  %13 = alloca i32, align 4
  %14 = alloca i32, align 4
  %15 = alloca i8, align 1
  store ptr %0, ptr %5, align 8
  store ptr %1, ptr %6, align 8
  store ptr %2, ptr %7, align 8
  call void @llvm.lifetime.start.p0(i64 4, ptr %8) #4
  store i32 1, ptr %8, align 4
  call void @llvm.lifetime.start.p0(i64 4, ptr %9) #4
  store i32 0, ptr %9, align 4
  call void @llvm.lifetime.start.p0(i64 4, ptr %10) #4
  store i32 0, ptr %10, align 4
  call void @llvm.lifetime.start.p0(i64 1, ptr %11) #4
  %16 = load ptr, ptr %5, align 8
  %17 = load ptr, ptr %7, align 8
  %18 = load i32, ptr %17, align 4
  %19 = call zeroext i8 @tvb_get_uint8(ptr noundef %16, i32 noundef %18)
  store i8 %19, ptr %11, align 1
  call void @llvm.lifetime.start.p0(i64 4, ptr %12) #4
  store i32 0, ptr %12, align 4
  call void @llvm.lifetime.start.p0(i64 4, ptr %13) #4
  %20 = load i8, ptr %11, align 1
  %21 = call i32 @decode_vint_size(i8 noundef signext %20)
  store i32 %21, ptr %13, align 4
  %22 = load i32, ptr %13, align 4
  %23 = icmp eq i32 %22, 1
  br i1 %23, label %24, label %39

24:                                               ; preds = %3
  %25 = load ptr, ptr %6, align 8
  %26 = load i32, ptr @hf_hdfsdata_clientlen, align 4
  %27 = load ptr, ptr %5, align 8
  %28 = load ptr, ptr %7, align 8
  %29 = load i32, ptr %28, align 4
  %30 = load i32, ptr %8, align 4
  %31 = call ptr @proto_tree_add_item(ptr noundef %25, i32 noundef %26, ptr noundef %27, i32 noundef %29, i32 noundef %30, i32 noundef 0)
  %32 = load ptr, ptr %7, align 8
  %33 = load i32, ptr %32, align 4
  %34 = load i32, ptr %8, align 4
  %35 = add i32 %33, %34
  %36 = load ptr, ptr %7, align 8
  store i32 %35, ptr %36, align 4
  %37 = load i8, ptr %11, align 1
  %38 = sext i8 %37 to i32
  store i32 %38, ptr %4, align 4
  store i32 1, ptr %14, align 4
  br label %96

39:                                               ; preds = %3
  store i32 0, ptr %9, align 4
  br label %40

40:                                               ; preds = %61, %39
  %41 = load i32, ptr %9, align 4
  %42 = load i32, ptr %13, align 4
  %43 = sub i32 %42, 1
  %44 = icmp slt i32 %41, %43
  br i1 %44, label %45, label %64

45:                                               ; preds = %40
  call void @llvm.lifetime.start.p0(i64 1, ptr %15) #4
  %46 = load ptr, ptr %5, align 8
  %47 = load ptr, ptr %7, align 8
  %48 = load i32, ptr %47, align 4
  %49 = load i32, ptr %8, align 4
  %50 = add i32 %48, %49
  %51 = call zeroext i8 @tvb_get_uint8(ptr noundef %46, i32 noundef %50)
  store i8 %51, ptr %15, align 1
  %52 = load i32, ptr %8, align 4
  %53 = add i32 %52, 1
  store i32 %53, ptr %8, align 4
  %54 = load i32, ptr %10, align 4
  %55 = shl i32 %54, 8
  store i32 %55, ptr %10, align 4
  %56 = load i32, ptr %10, align 4
  %57 = load i8, ptr %15, align 1
  %58 = sext i8 %57 to i32
  %59 = and i32 %58, 255
  %60 = or i32 %56, %59
  store i32 %60, ptr %10, align 4
  call void @llvm.lifetime.end.p0(i64 1, ptr %15) #4
  br label %61

61:                                               ; preds = %45
  %62 = load i32, ptr %9, align 4
  %63 = add i32 %62, 1
  store i32 %63, ptr %9, align 4
  br label %40, !llvm.loop !10

64:                                               ; preds = %40
  %65 = load i8, ptr %11, align 1
  %66 = sext i8 %65 to i32
  %67 = icmp slt i32 %66, -120
  br i1 %67, label %76, label %68

68:                                               ; preds = %64
  %69 = load i8, ptr %11, align 1
  %70 = sext i8 %69 to i32
  %71 = icmp sge i32 %70, -112
  br i1 %71, label %72, label %79

72:                                               ; preds = %68
  %73 = load i8, ptr %11, align 1
  %74 = sext i8 %73 to i32
  %75 = icmp slt i32 %74, 0
  br i1 %75, label %76, label %79

76:                                               ; preds = %72, %64
  %77 = load i32, ptr %10, align 4
  %78 = xor i32 %77, -1
  br label %81

79:                                               ; preds = %72, %68
  %80 = load i32, ptr %10, align 4
  br label %81

81:                                               ; preds = %79, %76
  %82 = phi i32 [ %78, %76 ], [ %80, %79 ]
  store i32 %82, ptr %12, align 4
  %83 = load ptr, ptr %6, align 8
  %84 = load i32, ptr @hf_hdfsdata_clientlen, align 4
  %85 = load ptr, ptr %5, align 8
  %86 = load ptr, ptr %7, align 8
  %87 = load i32, ptr %86, align 4
  %88 = load i32, ptr %8, align 4
  %89 = call ptr @proto_tree_add_item(ptr noundef %83, i32 noundef %84, ptr noundef %85, i32 noundef %87, i32 noundef %88, i32 noundef 0)
  %90 = load ptr, ptr %7, align 8
  %91 = load i32, ptr %90, align 4
  %92 = load i32, ptr %8, align 4
  %93 = add i32 %91, %92
  %94 = load ptr, ptr %7, align 8
  store i32 %93, ptr %94, align 4
  %95 = load i32, ptr %12, align 4
  store i32 %95, ptr %4, align 4
  store i32 1, ptr %14, align 4
  br label %96

96:                                               ; preds = %81, %24
  call void @llvm.lifetime.end.p0(i64 4, ptr %13) #4
  call void @llvm.lifetime.end.p0(i64 4, ptr %12) #4
  call void @llvm.lifetime.end.p0(i64 1, ptr %11) #4
  call void @llvm.lifetime.end.p0(i64 4, ptr %10) #4
  call void @llvm.lifetime.end.p0(i64 4, ptr %9) #4
  call void @llvm.lifetime.end.p0(i64 4, ptr %8) #4
  %97 = load i32, ptr %4, align 4
  ret i32 %97
}

; Function Attrs: null_pointer_is_valid sspstrong uwtable
define internal void @dissect_variable_int_string(ptr noundef %0, ptr noundef %1, ptr noundef %2) #0 {
  %4 = alloca ptr, align 8
  %5 = alloca ptr, align 8
  %6 = alloca ptr, align 8
  %7 = alloca i32, align 4
  store ptr %0, ptr %4, align 8
  store ptr %1, ptr %5, align 8
  store ptr %2, ptr %6, align 8
  call void @llvm.lifetime.start.p0(i64 4, ptr %7) #4
  %8 = load ptr, ptr %4, align 8
  %9 = load ptr, ptr %5, align 8
  %10 = load ptr, ptr %6, align 8
  %11 = call i32 @dissect_variable_length_long(ptr noundef %8, ptr noundef %9, ptr noundef %10)
  store i32 %11, ptr %7, align 4
  %12 = load ptr, ptr %5, align 8
  %13 = load i32, ptr @hf_hdfsdata_clientid, align 4
  %14 = load ptr, ptr %4, align 8
  %15 = load ptr, ptr %6, align 8
  %16 = load i32, ptr %15, align 4
  %17 = load i32, ptr %7, align 4
  %18 = call ptr @proto_tree_add_item(ptr noundef %12, i32 noundef %13, ptr noundef %14, i32 noundef %16, i32 noundef %17, i32 noundef 0)
  %19 = load i32, ptr %7, align 4
  %20 = load ptr, ptr %6, align 8
  %21 = load i32, ptr %20, align 4
  %22 = add i32 %21, %19
  store i32 %22, ptr %20, align 4
  call void @llvm.lifetime.end.p0(i64 4, ptr %7) #4
  ret void
}