; Function Attrs: null_pointer_is_valid sspstrong uwtable
define internal fastcc void @dissect_variable_int_string(ptr noundef %0, ptr noundef %1, ptr noundef captures(none) %2) unnamed_addr #0 {
  %4 = load i32, ptr %2, align 4
  %5 = tail call zeroext i8 @tvb_get_uint8(ptr noundef %0, i32 noundef %4)
  %6 = sext i8 %5 to i32
  %7 = icmp sgt i8 %5, -113
  br i1 %7, label %dissect_variable_length_long.exit, label %decode_vint_size.exit.i

decode_vint_size.exit.i:                          ; preds = %3
  %8 = icmp samesign ult i8 %5, -120
  %.0.i.v.i = select i1 %8, i32 -119, i32 -111
  %.0.i.i = sub nuw nsw i32 %.0.i.v.i, %6
  %9 = icmp eq i32 %.0.i.i, 1
  br i1 %9, label %dissect_variable_length_long.exit, label %.preheader.i

.preheader.i:                                     ; preds = %decode_vint_size.exit.i
  %10 = icmp sgt i32 %.0.i.i, 1
  br i1 %10, label %.lr.ph.i, label %._crit_edge.i

.lr.ph.i:                                         ; preds = %.preheader.i, %.lr.ph.i
  %.03746.i = phi i32 [ %14, %.lr.ph.i ], [ 1, %.preheader.i ]
  %.03944.i = phi i32 [ %17, %.lr.ph.i ], [ 0, %.preheader.i ]
  %11 = load i32, ptr %2, align 4
  %12 = add i32 %11, %.03746.i
  %13 = tail call zeroext i8 @tvb_get_uint8(ptr noundef %0, i32 noundef %12)
  %14 = add nuw nsw i32 %.03746.i, 1
  %15 = shl i32 %.03944.i, 8
  %16 = zext i8 %13 to i32
  %17 = or disjoint i32 %15, %16
  %exitcond.not.i = icmp eq i32 %14, %.0.i.i
  br i1 %exitcond.not.i, label %._crit_edge.i, label %.lr.ph.i, !llvm.loop !6

._crit_edge.i:                                    ; preds = %.lr.ph.i, %.preheader.i
  %.039.lcssa.i = phi i32 [ 0, %.preheader.i ], [ %17, %.lr.ph.i ]
  %.037.lcssa.i = phi i32 [ 1, %.preheader.i ], [ %.0.i.i, %.lr.ph.i ]
  %18 = icmp slt i8 %5, -120
  %19 = sext i1 %18 to i32
  %20 = xor i32 %.039.lcssa.i, %19
  br label %dissect_variable_length_long.exit

dissect_variable_length_long.exit:                ; preds = %3, %decode_vint_size.exit.i, %._crit_edge.i
  %.037.lcssa.sink50.i = phi i32 [ %.037.lcssa.i, %._crit_edge.i ], [ 1, %3 ], [ 1, %decode_vint_size.exit.i ]
  %.0.i = phi i32 [ %20, %._crit_edge.i ], [ %6, %3 ], [ %6, %decode_vint_size.exit.i ]
  %21 = load i32, ptr @hf_hdfsdata_clientlen, align 4
  %22 = load i32, ptr %2, align 4
  %23 = tail call ptr @proto_tree_add_item(ptr noundef %1, i32 noundef %21, ptr noundef %0, i32 noundef %22, i32 noundef %.037.lcssa.sink50.i, i32 noundef 0)
  %24 = load i32, ptr %2, align 4
  %25 = add i32 %24, %.037.lcssa.sink50.i
  store i32 %25, ptr %2, align 4
  %26 = load i32, ptr @hf_hdfsdata_clientid, align 4
  %27 = tail call ptr @proto_tree_add_item(ptr noundef %1, i32 noundef %26, ptr noundef %0, i32 noundef %25, i32 noundef %.0.i, i32 noundef 0)
  %28 = load i32, ptr %2, align 4
  %29 = add i32 %28, %.0.i
  store i32 %29, ptr %2, align 4
  ret void
}